; Function Attrs: mustprogress nounwind uwtable
define hidden void @_ZN12ZJNICritical4exitEP10JavaThread(ptr nocapture noundef %0) local_unnamed_addr #1 align 2 {
  %2 = getelementptr inbounds i8, ptr %0, i64 1308
  %3 = load i32, ptr %2, align 4
  %4 = add nsw i32 %3, -1
  store i32 %4, ptr %2, align 4
  %5 = icmp sgt i32 %3, 1
  br i1 %5, label %_ZN12ZJNICritical10exit_innerEv.exit, label %.preheader

.preheader:                                       ; preds = %1, %.preheader.backedge
  %6 = load volatile i64, ptr @_ZN12ZJNICritical6_countE, align 8
  tail call void asm sideeffect "", "~{memory},~{dirflag},~{fpsr},~{flags}"() #6, !srcloc !6
  %7 = icmp sgt i64 %6, 0
  br i1 %7, label %8, label %11

8:                                                ; preds = %.preheader
  %9 = add nsw i64 %6, -1
  %10 = tail call noundef i64 asm sideeffect "lock cmpxchgq $1,($3)", "={ax},r,{ax},r,~{cc},~{memory},~{dirflag},~{fpsr},~{flags}"(i64 %9, i64 %6, ptr nonnull @_ZN12ZJNICritical6_countE) #6, !srcloc !10
  %.not8.i = icmp eq i64 %10, %6
  br i1 %.not8.i, label %_ZN12ZJNICritical10exit_innerEv.exit, label %.preheader.backedge

11:                                               ; preds = %.preheader
  %12 = add nsw i64 %6, 1
  %13 = tail call noundef i64 asm sideeffect "lock cmpxchgq $1,($3)", "={ax},r,{ax},r,~{cc},~{memory},~{dirflag},~{fpsr},~{flags}"(i64 %12, i64 %6, ptr nonnull @_ZN12ZJNICritical6_countE) #6, !srcloc !10
  %.not.i = icmp eq i64 %13, %6
  br i1 %.not.i, label %14, label %.preheader.backedge

.preheader.backedge:                              ; preds = %11, %8
  br label %.preheader, !llvm.loop !15

14:                                               ; preds = %11
  %15 = icmp eq i64 %6, -2
  br i1 %15, label %16, label %_ZN12ZJNICritical10exit_innerEv.exit

16:                                               ; preds = %14
  %17 = load ptr, ptr @_ZN12ZJNICritical5_lockE, align 8
  %.not.i.i = icmp eq ptr %17, null
  br i1 %.not.i.i, label %_ZN7ZLockerI14ZConditionLockEC2EPS0_.exit.thread.i, label %19

_ZN7ZLockerI14ZConditionLockEC2EPS0_.exit.thread.i: ; preds = %16
  %18 = tail call i32 @pthread_cond_broadcast(ptr noundef nonnull inttoptr (i64 40 to ptr)) #6
  br label %_ZN12ZJNICritical10exit_innerEv.exit

19:                                               ; preds = %16
  %20 = tail call i32 @pthread_mutex_lock(ptr noundef nonnull %17) #6
  %21 = load ptr, ptr @_ZN12ZJNICritical5_lockE, align 8
  %22 = getelementptr inbounds i8, ptr %21, i64 40
  %23 = tail call i32 @pthread_cond_broadcast(ptr noundef nonnull %22) #6
  %24 = tail call i32 @pthread_mutex_unlock(ptr noundef nonnull %17) #6
  br label %_ZN12ZJNICritical10exit_innerEv.exit

_ZN12ZJNICritical10exit_innerEv.exit:             ; preds = %8, %19, %_ZN7ZLockerI14ZConditionLockEC2EPS0_.exit.thread.i, %14, %1
  ret void
}